target datalayout = "e-m:e-p270:32:32-p271:32:32-p272:64:64-i64:64-i128:128-f80:128-n8:16:32:64-S128"
target triple = "x86_64-pc-linux-gnu"

; Function Attrs: nounwind uwtable
define dso_local i32 @mp_unpack_limit(ptr noundef %0) #0 {
  %2 = alloca ptr, align 8
  %3 = alloca i64, align 8
  %4 = alloca i64, align 8
  store ptr %0, ptr %2, align 8, !tbaa !17
  call void @llvm.lifetime.start.p0(i64 8, ptr %3) #6
  %5 = load ptr, ptr %2, align 8, !tbaa !17
  %6 = call i64 @luaL_checkinteger(ptr noundef %5, i32 noundef 2)
  store i64 %6, ptr %3, align 8, !tbaa !8
  call void @llvm.lifetime.start.p0(i64 8, ptr %4) #6
  %7 = load ptr, ptr %2, align 8, !tbaa !17
  %8 = call i64 @luaL_optinteger(ptr noundef %7, i32 noundef 3, i64 noundef 0)
  store i64 %8, ptr %4, align 8, !tbaa !8
  %9 = load ptr, ptr %2, align 8, !tbaa !17
  %10 = load ptr, ptr %2, align 8, !tbaa !17
  %11 = call i32 @lua_gettop(ptr noundef %10)
  %12 = sub nsw i32 %11, 1
  %13 = sub nsw i32 0, %12
  %14 = sub nsw i32 %13, 1
  call void @lua_settop(ptr noundef %9, i32 noundef %14)
  %15 = load ptr, ptr %2, align 8, !tbaa !17
  %16 = load i64, ptr %3, align 8, !tbaa !8
  %17 = load i64, ptr %4, align 8, !tbaa !8
  %18 = call i32 @mp_unpack_full(ptr noundef %15, i64 noundef %16, i64 noundef %17)
  call void @llvm.lifetime.end.p0(i64 8, ptr %4) #6
  call void @llvm.lifetime.end.p0(i64 8, ptr %3) #6
  ret i32 %18
}