; Function Attrs: nounwind uwtable
define dso_local i32 @mp_unpack_limit(ptr noundef %0) #2 {
  %2 = tail call i64 @luaL_checkinteger(ptr noundef %0, i32 noundef 2) #10
  %3 = tail call i64 @luaL_optinteger(ptr noundef %0, i32 noundef 3, i64 noundef 0) #10
  %4 = tail call i32 @lua_gettop(ptr noundef %0) #10
  %5 = sub i32 0, %4
  tail call void @lua_settop(ptr noundef %0, i32 noundef %5) #10
  %6 = tail call i32 @mp_unpack_full(ptr noundef %0, i64 noundef %2, i64 noundef %3)
  ret i32 %6
}